target datalayout = "e-m:e-p270:32:32-p271:32:32-p272:64:64-i64:64-i128:128-f80:128-n8:16:32:64-S128"
target triple = "x86_64-pc-linux-gnu"

%class.aiVector3t = type { float, float, float }
%"class.Assimp::SpatialSort" = type <{ %class.aiVector3t, %class.aiVector3t, %"class.std::vector", i8, [7 x i8] }>
%"class.std::vector" = type { %"struct.std::_Vector_base" }
%"struct.std::_Vector_base" = type { %"struct.std::_Vector_base<Assimp::SpatialSort::Entry, std::allocator<Assimp::SpatialSort::Entry>>::_Vector_impl" }
%"struct.std::_Vector_base<Assimp::SpatialSort::Entry, std::allocator<Assimp::SpatialSort::Entry>>::_Vector_impl" = type { %"struct.std::_Vector_base<Assimp::SpatialSort::Entry, std::allocator<Assimp::SpatialSort::Entry>>::_Vector_impl_data" }
%"struct.std::_Vector_base<Assimp::SpatialSort::Entry, std::allocator<Assimp::SpatialSort::Entry>>::_Vector_impl_data" = type { ptr, ptr, ptr }

@_ZL9PlaneInit = internal global %class.aiVector3t zeroinitializer, align 4

; Function Attrs: mustprogress nounwind uwtable
define linkonce_odr void @_ZNSt15__new_allocatorIN6Assimp11SpatialSort5EntryEE10deallocateEPS2_m(ptr noundef nonnull align 1 dereferenceable(1) %0, ptr noundef %1, i64 noundef %2) #1 comdat align 2 {
  %4 = alloca ptr, align 8
  %5 = alloca ptr, align 8
  %6 = alloca i64, align 8
  store ptr %0, ptr %4, align 8
  store ptr %1, ptr %5, align 8
  store i64 %2, ptr %6, align 8
  %7 = load ptr, ptr %5, align 8
  %8 = load i64, ptr %6, align 8
  %9 = mul i64 %8, 20
  call void @_ZdlPvm(ptr noundef %7, i64 noundef %9) #18
  ret void
}

; Function Attrs: mustprogress nounwind uwtable
define linkonce_odr void @_ZNSt15__new_allocatorIN6Assimp11SpatialSort5EntryEEC2Ev(ptr noundef nonnull align 1 dereferenceable(1) %0) unnamed_addr #1 comdat align 2 {
  %2 = alloca ptr, align 8
  store ptr %0, ptr %2, align 8
  ret void
}

; Function Attrs: mustprogress uwtable
define linkonce_odr void @_ZNSt16allocator_traitsISaIN6Assimp11SpatialSort5EntryEEE10deallocateERS3_PS2_m(ptr noundef nonnull align 1 dereferenceable(1) %0, ptr noundef %1, i64 noundef %2) #3 comdat align 2 {
  %4 = alloca ptr, align 8
  %5 = alloca ptr, align 8
  %6 = alloca i64, align 8
  store ptr %0, ptr %4, align 8
  store ptr %1, ptr %5, align 8
  store i64 %2, ptr %6, align 8
  %7 = load ptr, ptr %4, align 8
  %8 = load ptr, ptr %5, align 8
  %9 = load i64, ptr %6, align 8
  call void @_ZNSt15__new_allocatorIN6Assimp11SpatialSort5EntryEE10deallocateEPS2_m(ptr noundef nonnull align 1 dereferenceable(1) %7, ptr noundef %8, i64 noundef %9)
  ret void
}

; Function Attrs: mustprogress nounwind uwtable
define linkonce_odr void @_ZNSt12_Destroy_auxILb1EE9__destroyIPN6Assimp11SpatialSort5EntryEEEvT_S6_(ptr noundef %0, ptr noundef %1) #1 comdat align 2 {
  %3 = alloca ptr, align 8
  %4 = alloca ptr, align 8
  store ptr %0, ptr %3, align 8
  store ptr %1, ptr %4, align 8
  ret void
}

; Function Attrs: mustprogress nounwind uwtable
define linkonce_odr void @_ZNSt12_Vector_baseIN6Assimp11SpatialSort5EntryESaIS2_EE17_Vector_impl_dataC2Ev(ptr noundef nonnull align 8 dereferenceable(24) %0) unnamed_addr #1 comdat align 2 {
  %2 = alloca ptr, align 8
  store ptr %0, ptr %2, align 8
  %3 = load ptr, ptr %2, align 8
  %4 = getelementptr inbounds nuw %"struct.std::_Vector_base<Assimp::SpatialSort::Entry, std::allocator<Assimp::SpatialSort::Entry>>::_Vector_impl_data", ptr %3, i32 0, i32 0
  store ptr null, ptr %4, align 8
  %5 = getelementptr inbounds nuw %"struct.std::_Vector_base<Assimp::SpatialSort::Entry, std::allocator<Assimp::SpatialSort::Entry>>::_Vector_impl_data", ptr %3, i32 0, i32 1
  store ptr null, ptr %5, align 8
  %6 = getelementptr inbounds nuw %"struct.std::_Vector_base<Assimp::SpatialSort::Entry, std::allocator<Assimp::SpatialSort::Entry>>::_Vector_impl_data", ptr %3, i32 0, i32 2
  store ptr null, ptr %6, align 8
  ret void
}

; Function Attrs: mustprogress nounwind uwtable
define linkonce_odr void @_ZNSaIN6Assimp11SpatialSort5EntryEEC2Ev(ptr noundef nonnull align 1 dereferenceable(1) %0) unnamed_addr #1 comdat align 2 {
  %2 = alloca ptr, align 8
  store ptr %0, ptr %2, align 8
  %3 = load ptr, ptr %2, align 8
  call void @_ZNSt15__new_allocatorIN6Assimp11SpatialSort5EntryEEC2Ev(ptr noundef nonnull align 1 dereferenceable(1) %3) #15
  ret void
}

; Function Attrs: mustprogress nounwind uwtable
define linkonce_odr void @_ZNSt15__new_allocatorIN6Assimp11SpatialSort5EntryEED2Ev(ptr noundef nonnull align 1 dereferenceable(1) %0) unnamed_addr #1 comdat align 2 {
  %2 = alloca ptr, align 8
  store ptr %0, ptr %2, align 8
  ret void
}

; Function Attrs: mustprogress uwtable
define linkonce_odr void @_ZNSt12_Vector_baseIN6Assimp11SpatialSort5EntryESaIS2_EE13_M_deallocateEPS2_m(ptr noundef nonnull align 8 dereferenceable(24) %0, ptr noundef %1, i64 noundef %2) #3 comdat align 2 {
  %4 = alloca ptr, align 8
  %5 = alloca ptr, align 8
  %6 = alloca i64, align 8
  store ptr %0, ptr %4, align 8
  store ptr %1, ptr %5, align 8
  store i64 %2, ptr %6, align 8
  %7 = load ptr, ptr %4, align 8
  %8 = load ptr, ptr %5, align 8
  %9 = icmp ne ptr %8, null
  br i1 %9, label %10, label %14

10:                                               ; preds = %3
  %11 = getelementptr inbounds nuw %"struct.std::_Vector_base", ptr %7, i32 0, i32 0
  %12 = load ptr, ptr %5, align 8
  %13 = load i64, ptr %6, align 8
  call void @_ZNSt16allocator_traitsISaIN6Assimp11SpatialSort5EntryEEE10deallocateERS3_PS2_m(ptr noundef nonnull align 1 dereferenceable(1) %11, ptr noundef %12, i64 noundef %13)
  br label %14

14:                                               ; preds = %10, %3
  ret void
}

; Function Attrs: inlinehint mustprogress uwtable
define linkonce_odr void @_ZSt8_DestroyIPN6Assimp11SpatialSort5EntryEEvT_S4_(ptr noundef %0, ptr noundef %1) #7 comdat {
  %3 = alloca ptr, align 8
  %4 = alloca ptr, align 8
  store ptr %0, ptr %3, align 8
  store ptr %1, ptr %4, align 8
  %5 = load ptr, ptr %3, align 8
  %6 = load ptr, ptr %4, align 8
  call void @_ZNSt12_Destroy_auxILb1EE9__destroyIPN6Assimp11SpatialSort5EntryEEEvT_S6_(ptr noundef %5, ptr noundef %6)
  ret void
}

; Function Attrs: inlinehint mustprogress nounwind uwtable
define linkonce_odr noundef float @_ZSt4sqrtf(float noundef %0) #6 comdat {
  %2 = alloca float, align 4
  store float %0, ptr %2, align 4
  %3 = load float, ptr %2, align 4
  %4 = call float @sqrtf(float noundef %3) #15
  ret float %4
}

; Function Attrs: inlinehint mustprogress nounwind uwtable
define linkonce_odr hidden noundef float @_ZNK10aiVector3tIfE12SquareLengthEv(ptr noundef nonnull align 4 dereferenceable(12) %0) #6 comdat align 2 {
  %2 = alloca ptr, align 8
  store ptr %0, ptr %2, align 8
  %3 = load ptr, ptr %2, align 8
  %4 = getelementptr inbounds nuw %class.aiVector3t, ptr %3, i32 0, i32 0
  %5 = load float, ptr %4, align 4
  %6 = getelementptr inbounds nuw %class.aiVector3t, ptr %3, i32 0, i32 0
  %7 = load float, ptr %6, align 4
  %8 = getelementptr inbounds nuw %class.aiVector3t, ptr %3, i32 0, i32 1
  %9 = load float, ptr %8, align 4
  %10 = getelementptr inbounds nuw %class.aiVector3t, ptr %3, i32 0, i32 1
  %11 = load float, ptr %10, align 4
  %12 = fmul float %9, %11
  %13 = call float @llvm.fmuladd.f32(float %5, float %7, float %12)
  %14 = getelementptr inbounds nuw %class.aiVector3t, ptr %3, i32 0, i32 2
  %15 = load float, ptr %14, align 4
  %16 = getelementptr inbounds nuw %class.aiVector3t, ptr %3, i32 0, i32 2
  %17 = load float, ptr %16, align 4
  %18 = call float @llvm.fmuladd.f32(float %15, float %17, float %13)
  ret float %18
}

; Function Attrs: mustprogress nounwind uwtable
define linkonce_odr void @_ZNSt12_Vector_baseIN6Assimp11SpatialSort5EntryESaIS2_EE12_Vector_implC2Ev(ptr noundef nonnull align 8 dereferenceable(24) %0) unnamed_addr #1 comdat align 2 {
  %2 = alloca ptr, align 8
  store ptr %0, ptr %2, align 8
  %3 = load ptr, ptr %2, align 8
  call void @_ZNSaIN6Assimp11SpatialSort5EntryEEC2Ev(ptr noundef nonnull align 1 dereferenceable(1) %3) #15
  call void @_ZNSt12_Vector_baseIN6Assimp11SpatialSort5EntryESaIS2_EE17_Vector_impl_dataC2Ev(ptr noundef nonnull align 8 dereferenceable(24) %3) #15
  ret void
}

; Function Attrs: noinline noreturn nounwind uwtable
define linkonce_odr hidden void @__clang_call_terminate(ptr noundef %0) #8 comdat {
  %2 = call ptr @__cxa_begin_catch(ptr %0) #15
  call void @_ZSt9terminatev() #16
  unreachable
}

; Function Attrs: mustprogress nounwind uwtable
define linkonce_odr void @_ZNSt12_Vector_baseIN6Assimp11SpatialSort5EntryESaIS2_EED2Ev(ptr noundef nonnull align 8 dereferenceable(24) %0) unnamed_addr #1 comdat align 2 personality ptr @__gxx_personality_v0 {
  %2 = alloca ptr, align 8
  store ptr %0, ptr %2, align 8
  %3 = load ptr, ptr %2, align 8
  %4 = getelementptr inbounds nuw %"struct.std::_Vector_base", ptr %3, i32 0, i32 0
  %5 = getelementptr inbounds nuw %"struct.std::_Vector_base<Assimp::SpatialSort::Entry, std::allocator<Assimp::SpatialSort::Entry>>::_Vector_impl_data", ptr %4, i32 0, i32 0
  %6 = load ptr, ptr %5, align 8
  %7 = getelementptr inbounds nuw %"struct.std::_Vector_base", ptr %3, i32 0, i32 0
  %8 = getelementptr inbounds nuw %"struct.std::_Vector_base<Assimp::SpatialSort::Entry, std::allocator<Assimp::SpatialSort::Entry>>::_Vector_impl_data", ptr %7, i32 0, i32 2
  %9 = load ptr, ptr %8, align 8
  %10 = getelementptr inbounds nuw %"struct.std::_Vector_base", ptr %3, i32 0, i32 0
  %11 = getelementptr inbounds nuw %"struct.std::_Vector_base<Assimp::SpatialSort::Entry, std::allocator<Assimp::SpatialSort::Entry>>::_Vector_impl_data", ptr %10, i32 0, i32 0
  %12 = load ptr, ptr %11, align 8
  %13 = ptrtoint ptr %9 to i64
  %14 = ptrtoint ptr %12 to i64
  %15 = sub i64 %13, %14
  %16 = sdiv exact i64 %15, 20
  invoke void @_ZNSt12_Vector_baseIN6Assimp11SpatialSort5EntryESaIS2_EE13_M_deallocateEPS2_m(ptr noundef nonnull align 8 dereferenceable(24) %3, ptr noundef %6, i64 noundef %16)
          to label %17 unwind label %19

17:                                               ; preds = %1
  %18 = getelementptr inbounds nuw %"struct.std::_Vector_base", ptr %3, i32 0, i32 0
  call void @_ZNSt15__new_allocatorIN6Assimp11SpatialSort5EntryEED2Ev(ptr noundef nonnull align 8 dereferenceable(24) %18) #15
  ret void

19:                                               ; preds = %1
  %20 = landingpad { ptr, i32 }
          catch ptr null
  %21 = extractvalue { ptr, i32 } %20, 0
  call void @__clang_call_terminate(ptr %21) #16
  unreachable
}

; Function Attrs: inlinehint mustprogress uwtable
define linkonce_odr void @_ZSt8_DestroyIPN6Assimp11SpatialSort5EntryES2_EvT_S4_RSaIT0_E(ptr noundef %0, ptr noundef %1, ptr noundef nonnull align 1 dereferenceable(1) %2) #7 comdat {
  %4 = alloca ptr, align 8
  %5 = alloca ptr, align 8
  %6 = alloca ptr, align 8
  store ptr %0, ptr %4, align 8
  store ptr %1, ptr %5, align 8
  store ptr %2, ptr %6, align 8
  %7 = load ptr, ptr %4, align 8
  %8 = load ptr, ptr %5, align 8
  call void @_ZSt8_DestroyIPN6Assimp11SpatialSort5EntryEEvT_S4_(ptr noundef %7, ptr noundef %8)
  ret void
}

; Function Attrs: mustprogress nounwind uwtable
define linkonce_odr noundef nonnull align 1 dereferenceable(1) ptr @_ZNSt12_Vector_baseIN6Assimp11SpatialSort5EntryESaIS2_EE19_M_get_Tp_allocatorEv(ptr noundef nonnull align 8 dereferenceable(24) %0) #1 comdat align 2 {
  %2 = alloca ptr, align 8
  store ptr %0, ptr %2, align 8
  %3 = load ptr, ptr %2, align 8
  %4 = getelementptr inbounds nuw %"struct.std::_Vector_base", ptr %3, i32 0, i32 0
  ret ptr %4
}

; Function Attrs: inlinehint mustprogress nounwind uwtable
define linkonce_odr hidden noundef nonnull align 4 dereferenceable(12) ptr @_ZN10aiVector3tIfEdVEf(ptr noundef nonnull align 4 dereferenceable(12) %0, float noundef %1) #6 comdat align 2 {
  %3 = alloca ptr, align 8
  %4 = alloca ptr, align 8
  %5 = alloca float, align 4
  %6 = alloca float, align 4
  store ptr %0, ptr %4, align 8
  store float %1, ptr %5, align 4
  %7 = load ptr, ptr %4, align 8
  %8 = load float, ptr %5, align 4
  %9 = fcmp oeq float %8, 0.000000e+00
  br i1 %9, label %10, label %11

10:                                               ; preds = %2
  store ptr %7, ptr %3, align 8
  br label %26

11:                                               ; preds = %2
  call void @llvm.lifetime.start.p0(i64 4, ptr %6) #15
  %12 = load float, ptr %5, align 4
  %13 = fdiv float 1.000000e+00, %12
  store float %13, ptr %6, align 4
  %14 = load float, ptr %6, align 4
  %15 = getelementptr inbounds nuw %class.aiVector3t, ptr %7, i32 0, i32 0
  %16 = load float, ptr %15, align 4
  %17 = fmul float %16, %14
  store float %17, ptr %15, align 4
  %18 = load float, ptr %6, align 4
  %19 = getelementptr inbounds nuw %class.aiVector3t, ptr %7, i32 0, i32 1
  %20 = load float, ptr %19, align 4
  %21 = fmul float %20, %18
  store float %21, ptr %19, align 4
  %22 = load float, ptr %6, align 4
  %23 = getelementptr inbounds nuw %class.aiVector3t, ptr %7, i32 0, i32 2
  %24 = load float, ptr %23, align 4
  %25 = fmul float %24, %22
  store float %25, ptr %23, align 4
  store ptr %7, ptr %3, align 8
  call void @llvm.lifetime.end.p0(i64 4, ptr %6) #15
  br label %26

26:                                               ; preds = %11, %10
  %27 = load ptr, ptr %3, align 8
  ret ptr %27
}

; Function Attrs: inlinehint mustprogress uwtable
define linkonce_odr hidden noundef float @_ZNK10aiVector3tIfE6LengthEv(ptr noundef nonnull align 4 dereferenceable(12) %0) #7 comdat align 2 {
  %2 = alloca ptr, align 8
  store ptr %0, ptr %2, align 8
  %3 = load ptr, ptr %2, align 8
  %4 = call noundef float @_ZNK10aiVector3tIfE12SquareLengthEv(ptr noundef nonnull align 4 dereferenceable(12) %3)
  %5 = call noundef float @_ZSt4sqrtf(float noundef %4)
  ret float %5
}

; Function Attrs: mustprogress nounwind uwtable
define linkonce_odr void @_ZNSt12_Vector_baseIN6Assimp11SpatialSort5EntryESaIS2_EEC2Ev(ptr noundef nonnull align 8 dereferenceable(24) %0) unnamed_addr #1 comdat align 2 {
  %2 = alloca ptr, align 8
  store ptr %0, ptr %2, align 8
  %3 = load ptr, ptr %2, align 8
  %4 = getelementptr inbounds nuw %"struct.std::_Vector_base", ptr %3, i32 0, i32 0
  call void @_ZNSt12_Vector_baseIN6Assimp11SpatialSort5EntryESaIS2_EE12_Vector_implC2Ev(ptr noundef nonnull align 8 dereferenceable(24) %4) #15
  ret void
}

; Function Attrs: mustprogress nounwind uwtable
define linkonce_odr void @_ZNSt6vectorIN6Assimp11SpatialSort5EntryESaIS2_EED2Ev(ptr noundef nonnull align 8 dereferenceable(24) %0) unnamed_addr #1 comdat align 2 personality ptr @__gxx_personality_v0 {
  %2 = alloca ptr, align 8
  store ptr %0, ptr %2, align 8
  %3 = load ptr, ptr %2, align 8
  %4 = getelementptr inbounds nuw %"struct.std::_Vector_base", ptr %3, i32 0, i32 0
  %5 = getelementptr inbounds nuw %"struct.std::_Vector_base<Assimp::SpatialSort::Entry, std::allocator<Assimp::SpatialSort::Entry>>::_Vector_impl_data", ptr %4, i32 0, i32 0
  %6 = load ptr, ptr %5, align 8
  %7 = getelementptr inbounds nuw %"struct.std::_Vector_base", ptr %3, i32 0, i32 0
  %8 = getelementptr inbounds nuw %"struct.std::_Vector_base<Assimp::SpatialSort::Entry, std::allocator<Assimp::SpatialSort::Entry>>::_Vector_impl_data", ptr %7, i32 0, i32 1
  %9 = load ptr, ptr %8, align 8
  %10 = call noundef nonnull align 1 dereferenceable(1) ptr @_ZNSt12_Vector_baseIN6Assimp11SpatialSort5EntryESaIS2_EE19_M_get_Tp_allocatorEv(ptr noundef nonnull align 8 dereferenceable(24) %3) #15
  invoke void @_ZSt8_DestroyIPN6Assimp11SpatialSort5EntryES2_EvT_S4_RSaIT0_E(ptr noundef %6, ptr noundef %9, ptr noundef nonnull align 1 dereferenceable(1) %10)
          to label %11 unwind label %12

11:                                               ; preds = %1
  call void @_ZNSt12_Vector_baseIN6Assimp11SpatialSort5EntryESaIS2_EED2Ev(ptr noundef nonnull align 8 dereferenceable(24) %3) #15
  ret void

12:                                               ; preds = %1
  %13 = landingpad { ptr, i32 }
          catch ptr null
  %14 = extractvalue { ptr, i32 } %13, 0
  call void @__clang_call_terminate(ptr %14) #16
  unreachable
}

; Function Attrs: mustprogress uwtable
define linkonce_odr hidden noundef nonnull align 4 dereferenceable(12) ptr @_ZN10aiVector3tIfE9NormalizeEv(ptr noundef nonnull align 4 dereferenceable(12) %0) #3 comdat align 2 {
  %2 = alloca ptr, align 8
  %3 = alloca ptr, align 8
  %4 = alloca float, align 4
  %5 = alloca i32, align 4
  store ptr %0, ptr %3, align 8
  %6 = load ptr, ptr %3, align 8
  call void @llvm.lifetime.start.p0(i64 4, ptr %4) #15
  %7 = call noundef float @_ZNK10aiVector3tIfE6LengthEv(ptr noundef nonnull align 4 dereferenceable(12) %6)
  store float %7, ptr %4, align 4
  %8 = load float, ptr %4, align 4
  %9 = fcmp oeq float %8, 0.000000e+00
  br i1 %9, label %10, label %11

10:                                               ; preds = %1
  store ptr %6, ptr %2, align 8
  store i32 1, ptr %5, align 4
  br label %14

11:                                               ; preds = %1
  %12 = call noundef float @_ZNK10aiVector3tIfE6LengthEv(ptr noundef nonnull align 4 dereferenceable(12) %6)
  %13 = call noundef nonnull align 4 dereferenceable(12) ptr @_ZN10aiVector3tIfEdVEf(ptr noundef nonnull align 4 dereferenceable(12) %6, float noundef %12)
  store ptr %6, ptr %2, align 8
  store i32 1, ptr %5, align 4
  br label %14

14:                                               ; preds = %11, %10
  call void @llvm.lifetime.end.p0(i64 4, ptr %4) #15
  %15 = load ptr, ptr %2, align 8
  ret ptr %15
}

; Function Attrs: mustprogress nounwind uwtable
define linkonce_odr void @_ZNSt6vectorIN6Assimp11SpatialSort5EntryESaIS2_EEC2Ev(ptr noundef nonnull align 8 dereferenceable(24) %0) unnamed_addr #1 comdat align 2 {
  %2 = alloca ptr, align 8
  store ptr %0, ptr %2, align 8
  %3 = load ptr, ptr %2, align 8
  call void @_ZNSt12_Vector_baseIN6Assimp11SpatialSort5EntryESaIS2_EEC2Ev(ptr noundef nonnull align 8 dereferenceable(24) %3) #15
  ret void
}

; Function Attrs: mustprogress nounwind uwtable
define linkonce_odr hidden void @_ZN10aiVector3tIfEC2Ev(ptr noundef nonnull align 4 dereferenceable(12) %0) unnamed_addr #1 comdat align 2 {
  %2 = alloca ptr, align 8
  store ptr %0, ptr %2, align 8
  %3 = load ptr, ptr %2, align 8
  %4 = getelementptr inbounds nuw %class.aiVector3t, ptr %3, i32 0, i32 0
  store float 0.000000e+00, ptr %4, align 4
  %5 = getelementptr inbounds nuw %class.aiVector3t, ptr %3, i32 0, i32 1
  store float 0.000000e+00, ptr %5, align 4
  %6 = getelementptr inbounds nuw %class.aiVector3t, ptr %3, i32 0, i32 2
  store float 0.000000e+00, ptr %6, align 4
  ret void
}

; Function Attrs: mustprogress uwtable
define void @_ZN6Assimp11SpatialSortC2Ev(ptr noundef nonnull align 8 dereferenceable(49) %0) unnamed_addr #3 align 2 personality ptr @__gxx_personality_v0 {
  %2 = alloca ptr, align 8
  %3 = alloca ptr, align 8
  %4 = alloca i32, align 4
  store ptr %0, ptr %2, align 8
  %5 = load ptr, ptr %2, align 8
  %6 = getelementptr inbounds nuw %"class.Assimp::SpatialSort", ptr %5, i32 0, i32 0
  call void @llvm.memcpy.p0.p0.i64(ptr align 8 %6, ptr align 4 @_ZL9PlaneInit, i64 12, i1 false)
  %7 = getelementptr inbounds nuw %"class.Assimp::SpatialSort", ptr %5, i32 0, i32 1
  call void @_ZN10aiVector3tIfEC2Ev(ptr noundef nonnull align 4 dereferenceable(12) %7) #15
  %8 = getelementptr inbounds nuw %"class.Assimp::SpatialSort", ptr %5, i32 0, i32 2
  call void @_ZNSt6vectorIN6Assimp11SpatialSort5EntryESaIS2_EEC2Ev(ptr noundef nonnull align 8 dereferenceable(24) %8) #15
  %9 = getelementptr inbounds nuw %"class.Assimp::SpatialSort", ptr %5, i32 0, i32 3
  store i8 0, ptr %9, align 8
  %10 = getelementptr inbounds nuw %"class.Assimp::SpatialSort", ptr %5, i32 0, i32 0
  %11 = invoke noundef nonnull align 4 dereferenceable(12) ptr @_ZN10aiVector3tIfE9NormalizeEv(ptr noundef nonnull align 4 dereferenceable(12) %10)
          to label %12 unwind label %13

12:                                               ; preds = %1
  ret void

13:                                               ; preds = %1
  %14 = landingpad { ptr, i32 }
          cleanup
  %15 = extractvalue { ptr, i32 } %14, 0
  store ptr %15, ptr %3, align 8
  %16 = extractvalue { ptr, i32 } %14, 1
  store i32 %16, ptr %4, align 4
  call void @_ZNSt6vectorIN6Assimp11SpatialSort5EntryESaIS2_EED2Ev(ptr noundef nonnull align 8 dereferenceable(24) %8) #15
  br label %17

17:                                               ; preds = %13
  %18 = load ptr, ptr %3, align 8
  %19 = load i32, ptr %4, align 4
  %20 = insertvalue { ptr, i32 } poison, ptr %18, 0
  %21 = insertvalue { ptr, i32 } %20, i32 %19, 1
  resume { ptr, i32 } %21
}