; Function Attrs: mustprogress nofree norecurse nosync nounwind willreturn memory(argmem: write) uwtable
define void @_ZN6Assimp11SpatialSortC2Ev(ptr noundef nonnull writeonly align 8 captures(none) dereferenceable(49) initializes((0, 49)) %0) unnamed_addr #2 align 2 personality ptr @__gxx_personality_v0 {
_ZN10aiVector3tIfE9NormalizeEv.exit:
  %1 = getelementptr inbounds nuw i8, ptr %0, i64 12
  %2 = getelementptr inbounds nuw i8, ptr %0, i64 8
  %3 = getelementptr inbounds nuw i8, ptr %0, i64 4
  tail call void @llvm.memset.p0.i64(ptr noundef nonnull align 4 dereferenceable(37) %1, i8 0, i64 37, i1 false)
  store float 0x3FE92E0560000000, ptr %0, align 8
  store float 0x3FD44774C0000000, ptr %3, align 4
  store float 0x3FE0F23020000000, ptr %2, align 8
  ret void
}